target datalayout = "e-m:e-p270:32:32-p271:32:32-p272:64:64-i64:64-i128:128-f80:128-n8:16:32:64-S128"
target triple = "x86_64-pc-linux-gnu"

; Function Attrs: mustprogress nounwind uwtable
define linkonce_odr hidden void @_ZN4Copy16pd_fill_to_bytesEPvmh(ptr noundef %0, i64 noundef %1, i8 noundef zeroext %2) #1 comdat align 2 {
  %4 = alloca ptr, align 8
  %5 = alloca i64, align 8
  %6 = alloca i8, align 1
  store ptr %0, ptr %4, align 8
  store i64 %1, ptr %5, align 8
  store i8 %2, ptr %6, align 1
  %7 = load ptr, ptr %4, align 8
  %8 = load i8, ptr %6, align 1
  %9 = zext i8 %8 to i32
  %10 = trunc i32 %9 to i8
  %11 = load i64, ptr %5, align 8
  call void @llvm.memset.p0.i64(ptr align 1 %7, i8 %10, i64 %11, i1 false)
  ret void
}

; Function Attrs: mustprogress nounwind uwtable
define linkonce_odr hidden void @_ZN4Copy13fill_to_bytesEPvmh(ptr noundef %0, i64 noundef %1, i8 noundef zeroext %2) #1 comdat align 2 {
  %4 = alloca ptr, align 8
  %5 = alloca i64, align 8
  %6 = alloca i8, align 1
  store ptr %0, ptr %4, align 8
  store i64 %1, ptr %5, align 8
  store i8 %2, ptr %6, align 1
  %7 = load ptr, ptr %4, align 8
  %8 = load i64, ptr %5, align 8
  %9 = load i8, ptr %6, align 1
  call void @_ZN4Copy16pd_fill_to_bytesEPvmh(ptr noundef %7, i64 noundef %8, i8 noundef zeroext %9)
  ret void
}

; Function Attrs: mustprogress nounwind uwtable
define hidden void @_ZN4Copy21fill_to_memory_atomicEPvmh(ptr noundef %0, i64 noundef %1, i8 noundef zeroext %2) #1 align 2 {
  %4 = alloca ptr, align 8
  %5 = alloca i64, align 8
  %6 = alloca i8, align 1
  %7 = alloca ptr, align 8
  %8 = alloca i64, align 8
  %9 = alloca i64, align 8
  %10 = alloca i64, align 8
  %11 = alloca i32, align 4
  %12 = alloca i64, align 8
  %13 = alloca i16, align 2
  %14 = alloca i64, align 8
  store ptr %0, ptr %4, align 8
  store i64 %1, ptr %5, align 8
  store i8 %2, ptr %6, align 1
  %15 = load ptr, ptr %4, align 8
  store ptr %15, ptr %7, align 8
  %16 = load ptr, ptr %4, align 8
  %17 = ptrtoint ptr %16 to i64
  %18 = load i64, ptr %5, align 8
  %19 = or i64 %17, %18
  store i64 %19, ptr %8, align 8
  %20 = load i64, ptr %8, align 8
  %21 = urem i64 %20, 8
  %22 = icmp eq i64 %21, 0
  br i1 %22, label %23, label %55

23:                                               ; preds = %3
  %24 = load i8, ptr %6, align 1
  %25 = zext i8 %24 to i64
  store i64 %25, ptr %9, align 8
  %26 = load i64, ptr %9, align 8
  %27 = icmp ne i64 %26, 0
  br i1 %27, label %28, label %41

28:                                               ; preds = %23
  %29 = load i64, ptr %9, align 8
  %30 = shl i64 %29, 8
  %31 = load i64, ptr %9, align 8
  %32 = add nsw i64 %31, %30
  store i64 %32, ptr %9, align 8
  %33 = load i64, ptr %9, align 8
  %34 = shl i64 %33, 16
  %35 = load i64, ptr %9, align 8
  %36 = add nsw i64 %35, %34
  store i64 %36, ptr %9, align 8
  %37 = load i64, ptr %9, align 8
  %38 = shl i64 %37, 32
  %39 = load i64, ptr %9, align 8
  %40 = add nsw i64 %39, %38
  store i64 %40, ptr %9, align 8
  br label %41

41:                                               ; preds = %28, %23
  store i64 0, ptr %10, align 8
  br label %42

42:                                               ; preds = %51, %41
  %43 = load i64, ptr %10, align 8
  %44 = load i64, ptr %5, align 8
  %45 = icmp ult i64 %43, %44
  br i1 %45, label %46, label %54

46:                                               ; preds = %42
  %47 = load i64, ptr %9, align 8
  %48 = load ptr, ptr %7, align 8
  %49 = load i64, ptr %10, align 8
  %50 = getelementptr inbounds i8, ptr %48, i64 %49
  store i64 %47, ptr %50, align 8
  br label %51

51:                                               ; preds = %46
  %52 = load i64, ptr %10, align 8
  %53 = add i64 %52, 8
  store i64 %53, ptr %10, align 8
  br label %42, !llvm.loop !6

54:                                               ; preds = %42
  br label %122

55:                                               ; preds = %3
  %56 = load i64, ptr %8, align 8
  %57 = urem i64 %56, 4
  %58 = icmp eq i64 %57, 0
  br i1 %58, label %59, label %87

59:                                               ; preds = %55
  %60 = load i8, ptr %6, align 1
  %61 = zext i8 %60 to i32
  store i32 %61, ptr %11, align 4
  %62 = load i32, ptr %11, align 4
  %63 = icmp ne i32 %62, 0
  br i1 %63, label %64, label %73

64:                                               ; preds = %59
  %65 = load i32, ptr %11, align 4
  %66 = shl i32 %65, 8
  %67 = load i32, ptr %11, align 4
  %68 = add nsw i32 %67, %66
  store i32 %68, ptr %11, align 4
  %69 = load i32, ptr %11, align 4
  %70 = shl i32 %69, 16
  %71 = load i32, ptr %11, align 4
  %72 = add nsw i32 %71, %70
  store i32 %72, ptr %11, align 4
  br label %73

73:                                               ; preds = %64, %59
  store i64 0, ptr %12, align 8
  br label %74

74:                                               ; preds = %83, %73
  %75 = load i64, ptr %12, align 8
  %76 = load i64, ptr %5, align 8
  %77 = icmp ult i64 %75, %76
  br i1 %77, label %78, label %86

78:                                               ; preds = %74
  %79 = load i32, ptr %11, align 4
  %80 = load ptr, ptr %7, align 8
  %81 = load i64, ptr %12, align 8
  %82 = getelementptr inbounds i8, ptr %80, i64 %81
  store i32 %79, ptr %82, align 4
  br label %83

83:                                               ; preds = %78
  %84 = load i64, ptr %12, align 8
  %85 = add i64 %84, 4
  store i64 %85, ptr %12, align 8
  br label %74, !llvm.loop !8

86:                                               ; preds = %74
  br label %121

87:                                               ; preds = %55
  %88 = load i64, ptr %8, align 8
  %89 = urem i64 %88, 2
  %90 = icmp eq i64 %89, 0
  br i1 %90, label %91, label %116

91:                                               ; preds = %87
  %92 = load i8, ptr %6, align 1
  %93 = zext i8 %92 to i16
  store i16 %93, ptr %13, align 2
  %94 = load i16, ptr %13, align 2
  %95 = sext i16 %94 to i32
  %96 = shl i32 %95, 8
  %97 = trunc i32 %96 to i16
  %98 = sext i16 %97 to i32
  %99 = load i16, ptr %13, align 2
  %100 = sext i16 %99 to i32
  %101 = add nsw i32 %100, %98
  %102 = trunc i32 %101 to i16
  store i16 %102, ptr %13, align 2
  store i64 0, ptr %14, align 8
  br label %103

103:                                              ; preds = %112, %91
  %104 = load i64, ptr %14, align 8
  %105 = load i64, ptr %5, align 8
  %106 = icmp ult i64 %104, %105
  br i1 %106, label %107, label %115

107:                                              ; preds = %103
  %108 = load i16, ptr %13, align 2
  %109 = load ptr, ptr %7, align 8
  %110 = load i64, ptr %14, align 8
  %111 = getelementptr inbounds i8, ptr %109, i64 %110
  store i16 %108, ptr %111, align 2
  br label %112

112:                                              ; preds = %107
  %113 = load i64, ptr %14, align 8
  %114 = add i64 %113, 2
  store i64 %114, ptr %14, align 8
  br label %103, !llvm.loop !9

115:                                              ; preds = %103
  br label %120

116:                                              ; preds = %87
  %117 = load ptr, ptr %7, align 8
  %118 = load i64, ptr %5, align 8
  %119 = load i8, ptr %6, align 1
  call void @_ZN4Copy13fill_to_bytesEPvmh(ptr noundef %117, i64 noundef %118, i8 noundef zeroext %119)
  br label %120

120:                                              ; preds = %116, %115
  br label %121

121:                                              ; preds = %120, %86
  br label %122

122:                                              ; preds = %121, %54
  ret void
}