; Function Attrs: mustprogress nofree norecurse nosync nounwind memory(argmem: write) uwtable
define hidden void @_ZN4Copy21fill_to_memory_atomicEPvmh(ptr noundef %0, i64 noundef %1, i8 noundef zeroext %2) local_unnamed_addr #1 align 2 {
  %4 = ptrtoint ptr %0 to i64
  %5 = or i64 %4, %1
  %6 = and i64 %5, 7
  %7 = icmp eq i64 %6, 0
  br i1 %7, label %8, label %14

8:                                                ; preds = %3
  %9 = zext i8 %2 to i64
  %10 = mul nuw i64 %9, 72340172838076673
  %.not59 = icmp eq i64 %1, 0
  br i1 %.not59, label %.loopexit, label %.lr.ph57

.lr.ph57:                                         ; preds = %8, %.lr.ph57
  %.04556 = phi i64 [ %12, %.lr.ph57 ], [ 0, %8 ]
  %11 = getelementptr inbounds i8, ptr %0, i64 %.04556
  store i64 %10, ptr %11, align 8
  %12 = add nuw i64 %.04556, 8
  %13 = icmp ult i64 %12, %1
  br i1 %13, label %.lr.ph57, label %.loopexit, !llvm.loop !6

14:                                               ; preds = %3
  %15 = and i64 %5, 3
  %16 = icmp eq i64 %15, 0
  br i1 %16, label %17, label %23

17:                                               ; preds = %14
  %18 = zext i8 %2 to i32
  %19 = mul nuw i32 %18, 16843009
  %.not58 = icmp eq i64 %1, 0
  br i1 %.not58, label %.loopexit, label %.lr.ph55

.lr.ph55:                                         ; preds = %17, %.lr.ph55
  %.04354 = phi i64 [ %21, %.lr.ph55 ], [ 0, %17 ]
  %20 = getelementptr inbounds i8, ptr %0, i64 %.04354
  store i32 %19, ptr %20, align 4
  %21 = add nuw i64 %.04354, 4
  %22 = icmp ult i64 %21, %1
  br i1 %22, label %.lr.ph55, label %.loopexit, !llvm.loop !8

23:                                               ; preds = %14
  %24 = and i64 %5, 1
  %25 = icmp eq i64 %24, 0
  br i1 %25, label %26, label %32

26:                                               ; preds = %23
  %27 = zext i8 %2 to i16
  %28 = mul nuw i16 %27, 257
  %.not = icmp eq i64 %1, 0
  br i1 %.not, label %.loopexit, label %.lr.ph

.lr.ph:                                           ; preds = %26, %.lr.ph
  %.053 = phi i64 [ %30, %.lr.ph ], [ 0, %26 ]
  %29 = getelementptr inbounds i8, ptr %0, i64 %.053
  store i16 %28, ptr %29, align 2
  %30 = add nuw i64 %.053, 2
  %31 = icmp ult i64 %30, %1
  br i1 %31, label %.lr.ph, label %.loopexit, !llvm.loop !9

32:                                               ; preds = %23
  tail call void @llvm.memset.p0.i64(ptr align 1 %0, i8 %2, i64 %1, i1 false)
  br label %.loopexit

.loopexit:                                        ; preds = %.lr.ph, %.lr.ph55, %.lr.ph57, %26, %17, %8, %32
  ret void
}